target datalayout = "e-m:e-p270:32:32-p271:32:32-p272:64:64-i64:64-i128:128-f80:128-n8:16:32:64-S128"
target triple = "x86_64-pc-linux-gnu"

%struct.TupleTableSlotOps = type { i64, ptr, ptr, ptr, ptr, ptr, ptr, ptr, ptr, ptr, ptr, ptr, ptr }
%struct.TuplesortPublic = type { ptr, ptr, ptr, ptr, ptr, ptr, ptr, ptr, ptr, i8, i32, ptr, ptr, i32, i8, ptr }
%struct.SortSupportData = type { ptr, i32, i8, i8, i16, ptr, ptr, i8, ptr, ptr, ptr }
%struct.HeapTupleData = type { i32, %struct.ItemPointerData, i32, ptr }
%struct.ItemPointerData = type { %struct.BlockIdData, i16 }
%struct.BlockIdData = type { i16, i16 }
%struct.SortTuple = type { ptr, i64, i8, i32 }
%struct.MinimalTupleData = type { i32, [6 x i8], i16, i16, i8, [0 x i8] }
%struct.TupleTableSlot = type { i32, i16, i16, ptr, ptr, ptr, ptr, ptr, %struct.ItemPointerData, i32 }

@CurrentMemoryContext = external global ptr, align 8

; Function Attrs: inlinehint nounwind uwtable
define internal ptr @ExecCopySlotMinimalTuple(ptr noundef %0) #3 {
  %2 = alloca ptr, align 8
  store ptr %0, ptr %2, align 8
  %3 = load ptr, ptr %2, align 8
  %4 = getelementptr inbounds nuw %struct.TupleTableSlot, ptr %3, i32 0, i32 3
  %5 = load ptr, ptr %4, align 8
  %6 = getelementptr inbounds nuw %struct.TupleTableSlotOps, ptr %5, i32 0, i32 12
  %7 = load ptr, ptr %6, align 8
  %8 = load ptr, ptr %2, align 8
  %9 = call ptr %7(ptr noundef %8)
  ret ptr %9
}

; Function Attrs: inlinehint nounwind uwtable
define internal ptr @MemoryContextSwitchTo(ptr noundef %0) #3 {
  %2 = alloca ptr, align 8
  %3 = alloca ptr, align 8
  store ptr %0, ptr %2, align 8
  call void @llvm.lifetime.start.p0(i64 8, ptr %3) #6
  %4 = load ptr, ptr @CurrentMemoryContext, align 8
  store ptr %4, ptr %3, align 8
  %5 = load ptr, ptr %2, align 8
  store ptr %5, ptr @CurrentMemoryContext, align 8
  %6 = load ptr, ptr %3, align 8
  call void @llvm.lifetime.end.p0(i64 8, ptr %3) #6
  ret ptr %6
}

; Function Attrs: nounwind uwtable
define dso_local void @tuplesort_puttupleslot(ptr noundef %0, ptr noundef %1) #0 {
  %3 = alloca ptr, align 8
  %4 = alloca ptr, align 8
  %5 = alloca ptr, align 8
  %6 = alloca ptr, align 8
  %7 = alloca ptr, align 8
  %8 = alloca %struct.SortTuple, align 8
  %9 = alloca ptr, align 8
  %10 = alloca %struct.HeapTupleData, align 8
  %11 = alloca i64, align 8
  store ptr %0, ptr %3, align 8
  store ptr %1, ptr %4, align 8
  call void @llvm.lifetime.start.p0(i64 8, ptr %5) #6
  %12 = load ptr, ptr %3, align 8
  store ptr %12, ptr %5, align 8
  call void @llvm.lifetime.start.p0(i64 8, ptr %6) #6
  %13 = load ptr, ptr %5, align 8
  %14 = getelementptr inbounds nuw %struct.TuplesortPublic, ptr %13, i32 0, i32 8
  %15 = load ptr, ptr %14, align 8
  %16 = call ptr @MemoryContextSwitchTo(ptr noundef %15)
  store ptr %16, ptr %6, align 8
  call void @llvm.lifetime.start.p0(i64 8, ptr %7) #6
  %17 = load ptr, ptr %5, align 8
  %18 = getelementptr inbounds nuw %struct.TuplesortPublic, ptr %17, i32 0, i32 15
  %19 = load ptr, ptr %18, align 8
  store ptr %19, ptr %7, align 8
  call void @llvm.lifetime.start.p0(i64 24, ptr %8) #6
  call void @llvm.lifetime.start.p0(i64 8, ptr %9) #6
  call void @llvm.lifetime.start.p0(i64 24, ptr %10) #6
  call void @llvm.lifetime.start.p0(i64 8, ptr %11) #6
  %20 = load ptr, ptr %4, align 8
  %21 = call ptr @ExecCopySlotMinimalTuple(ptr noundef %20)
  store ptr %21, ptr %9, align 8
  %22 = load ptr, ptr %9, align 8
  %23 = getelementptr inbounds nuw %struct.SortTuple, ptr %8, i32 0, i32 0
  store ptr %22, ptr %23, align 8
  %24 = load ptr, ptr %9, align 8
  %25 = getelementptr inbounds nuw %struct.MinimalTupleData, ptr %24, i32 0, i32 0
  %26 = load i32, ptr %25, align 4
  %27 = zext i32 %26 to i64
  %28 = add i64 %27, 8
  %29 = trunc i64 %28 to i32
  %30 = getelementptr inbounds nuw %struct.HeapTupleData, ptr %10, i32 0, i32 0
  store i32 %29, ptr %30, align 8
  %31 = load ptr, ptr %9, align 8
  %32 = getelementptr inbounds i8, ptr %31, i64 -8
  %33 = getelementptr inbounds nuw %struct.HeapTupleData, ptr %10, i32 0, i32 3
  store ptr %32, ptr %33, align 8
  %34 = load ptr, ptr %5, align 8
  %35 = getelementptr inbounds nuw %struct.TuplesortPublic, ptr %34, i32 0, i32 11
  %36 = load ptr, ptr %35, align 8
  %37 = getelementptr inbounds %struct.SortSupportData, ptr %36, i64 0
  %38 = getelementptr inbounds nuw %struct.SortSupportData, ptr %37, i32 0, i32 4
  %39 = load i16, ptr %38, align 2
  %40 = sext i16 %39 to i32
  %41 = load ptr, ptr %7, align 8
  %42 = getelementptr inbounds nuw %struct.SortTuple, ptr %8, i32 0, i32 2
  %43 = call i64 @heap_getattr(ptr noundef %10, i32 noundef %40, ptr noundef %41, ptr noundef %42)
  %44 = getelementptr inbounds nuw %struct.SortTuple, ptr %8, i32 0, i32 1
  store i64 %43, ptr %44, align 8
  %45 = load ptr, ptr %5, align 8
  %46 = getelementptr inbounds nuw %struct.TuplesortPublic, ptr %45, i32 0, i32 13
  %47 = load i32, ptr %46, align 8
  %48 = and i32 %47, 2
  %49 = icmp eq i32 %48, 0
  br i1 %49, label %50, label %57

50:                                               ; preds = %2
  %51 = load ptr, ptr %9, align 8
  %52 = getelementptr inbounds nuw %struct.MinimalTupleData, ptr %51, i32 0, i32 0
  %53 = load i32, ptr %52, align 4
  %54 = zext i32 %53 to i64
  %55 = add i64 %54, 7
  %56 = and i64 %55, -8
  store i64 %56, ptr %11, align 8
  br label %60

57:                                               ; preds = %2
  %58 = load ptr, ptr %9, align 8
  %59 = call i64 @GetMemoryChunkSpace(ptr noundef %58)
  store i64 %59, ptr %11, align 8
  br label %60

60:                                               ; preds = %57, %50
  %61 = load ptr, ptr %3, align 8
  %62 = load ptr, ptr %5, align 8
  %63 = getelementptr inbounds nuw %struct.TuplesortPublic, ptr %62, i32 0, i32 11
  %64 = load ptr, ptr %63, align 8
  %65 = getelementptr inbounds nuw %struct.SortSupportData, ptr %64, i32 0, i32 8
  %66 = load ptr, ptr %65, align 8
  %67 = icmp ne ptr %66, null
  br i1 %67, label %68, label %73

68:                                               ; preds = %60
  %69 = getelementptr inbounds nuw %struct.SortTuple, ptr %8, i32 0, i32 2
  %70 = load i8, ptr %69, align 8, !range !4, !noundef !5
  %71 = trunc i8 %70 to i1
  %72 = xor i1 %71, true
  br label %73

73:                                               ; preds = %68, %60
  %74 = phi i1 [ false, %60 ], [ %72, %68 ]
  %75 = load i64, ptr %11, align 8
  call void @tuplesort_puttuple_common(ptr noundef %61, ptr noundef %8, i1 noundef zeroext %74, i64 noundef %75)
  %76 = load ptr, ptr %6, align 8
  %77 = call ptr @MemoryContextSwitchTo(ptr noundef %76)
  call void @llvm.lifetime.end.p0(i64 8, ptr %11) #6
  call void @llvm.lifetime.end.p0(i64 24, ptr %10) #6
  call void @llvm.lifetime.end.p0(i64 8, ptr %9) #6
  call void @llvm.lifetime.end.p0(i64 24, ptr %8) #6
  call void @llvm.lifetime.end.p0(i64 8, ptr %7) #6
  call void @llvm.lifetime.end.p0(i64 8, ptr %6) #6
  call void @llvm.lifetime.end.p0(i64 8, ptr %5) #6
  ret void
}