; Function Attrs: nounwind uwtable
define dso_local void @tuplesort_puttupleslot(ptr noundef %0, ptr noundef %1) local_unnamed_addr #0 {
  %3 = alloca %struct.SortTuple, align 8
  %4 = alloca %struct.HeapTupleData, align 8
  %5 = getelementptr inbounds nuw i8, ptr %0, i64 64
  %6 = load ptr, ptr %5, align 8
  %7 = load ptr, ptr @CurrentMemoryContext, align 8
  store ptr %6, ptr @CurrentMemoryContext, align 8
  %8 = getelementptr inbounds nuw i8, ptr %0, i64 104
  %9 = load ptr, ptr %8, align 8
  call void @llvm.lifetime.start.p0(i64 24, ptr nonnull %3) #12
  call void @llvm.lifetime.start.p0(i64 24, ptr nonnull %4) #12
  %10 = getelementptr inbounds nuw i8, ptr %1, i64 8
  %11 = load ptr, ptr %10, align 8
  %12 = getelementptr inbounds nuw i8, ptr %11, i64 96
  %13 = load ptr, ptr %12, align 8
  %14 = tail call ptr %13(ptr noundef %1) #12
  store ptr %14, ptr %3, align 8
  %15 = load i32, ptr %14, align 4
  %16 = add i32 %15, 8
  store i32 %16, ptr %4, align 8
  %17 = getelementptr inbounds i8, ptr %14, i64 -8
  %18 = getelementptr inbounds nuw i8, ptr %4, i64 16
  store ptr %17, ptr %18, align 8
  %19 = getelementptr inbounds nuw i8, ptr %0, i64 80
  %20 = load ptr, ptr %19, align 8
  %21 = getelementptr inbounds nuw i8, ptr %20, i64 14
  %22 = load i16, ptr %21, align 2
  %23 = sext i16 %22 to i32
  %24 = getelementptr inbounds nuw i8, ptr %3, i64 16
  %25 = call fastcc i64 @heap_getattr(ptr noundef nonnull %4, i32 noundef %23, ptr noundef %9, ptr noundef nonnull %24)
  %26 = getelementptr inbounds nuw i8, ptr %3, i64 8
  store i64 %25, ptr %26, align 8
  %27 = getelementptr inbounds nuw i8, ptr %0, i64 96
  %28 = load i32, ptr %27, align 8
  %29 = and i32 %28, 2
  %30 = icmp eq i32 %29, 0
  br i1 %30, label %31, label %36

31:                                               ; preds = %2
  %32 = load i32, ptr %14, align 4
  %33 = zext i32 %32 to i64
  %34 = add nuw nsw i64 %33, 7
  %35 = and i64 %34, 8589934584
  br label %38

36:                                               ; preds = %2
  %37 = call i64 @GetMemoryChunkSpace(ptr noundef nonnull %14) #12
  br label %38

38:                                               ; preds = %36, %31
  %.0 = phi i64 [ %35, %31 ], [ %37, %36 ]
  %39 = load ptr, ptr %19, align 8
  %40 = getelementptr inbounds nuw i8, ptr %39, i64 40
  %41 = load ptr, ptr %40, align 8
  %42 = icmp ne ptr %41, null
  %43 = load i8, ptr %24, align 8, !range !4
  %44 = trunc nuw i8 %43 to i1
  %45 = xor i1 %44, true
  %46 = select i1 %42, i1 %45, i1 false
  call void @tuplesort_puttuple_common(ptr noundef nonnull %0, ptr noundef nonnull %3, i1 noundef zeroext %46, i64 noundef %.0) #12
  store ptr %7, ptr @CurrentMemoryContext, align 8
  call void @llvm.lifetime.end.p0(i64 24, ptr nonnull %4) #12
  call void @llvm.lifetime.end.p0(i64 24, ptr nonnull %3) #12
  ret void
}